; ModuleID = '44/1268.c'
source_filename = "44/1268.c"
target datalayout = "e-m:e-p270:32:32-p271:32:32-p272:64:64-i64:64-f80:128-n8:16:32:64-S128"
target triple = "x86_64-pc-linux-gnu"

@.str = private unnamed_addr constant [3 x i8] c"%d\00", align 1
@.str.1 = private unnamed_addr constant [4 x i8] c"%d\0A\00", align 1

; Function Attrs: noinline nounwind uwtable
define dso_local i32 @main() #0 {
  %1 = alloca i32, align 4
  %2 = alloca i32, align 4
  %3 = alloca i32, align 4
  store i32 0, i32* %1, align 4
  store i32 1, i32* %3, align 4
  br label %4

4:                                                ; preds = %12, %0
  %5 = load i32, i32* %3, align 4
  %6 = icmp sle i32 %5, 6
  br i1 %6, label %7, label %15

7:                                                ; preds = %4
  %8 = call i32 (i8*, ...) @__isoc99_scanf(i8* getelementptr inbounds ([3 x i8], [3 x i8]* @.str, i64 0, i64 0), i32* %2)
  %9 = load i32, i32* %2, align 4
  %10 = call i32 @reverse(i32 %9)
  %11 = call i32 (i8*, ...) @printf(i8* getelementptr inbounds ([4 x i8], [4 x i8]* @.str.1, i64 0, i64 0), i32 %10)
  br label %12

12:                                               ; preds = %7
  %13 = load i32, i32* %3, align 4
  %14 = add nsw i32 %13, 1
  store i32 %14, i32* %3, align 4
  br label %4

15:                                               ; preds = %4
  ret i32 0
}

declare dso_local i32 @__isoc99_scanf(i8*, ...) #1

declare dso_local i32 @printf(i8*, ...) #1

; Function Attrs: noinline nounwind uwtable
define dso_local i32 @reverse(i32 %0) #0 {
  %2 = alloca i32, align 4
  %3 = alloca i32, align 4
  %4 = alloca i32, align 4
  %5 = alloca i32, align 4
  store i32 %0, i32* %2, align 4
  store i32 0, i32* %3, align 4
  store i32 1, i32* %5, align 4
  %6 = load i32, i32* %2, align 4
  %7 = icmp slt i32 %6, 0
  br i1 %7, label %8, label %11

8:                                                ; preds = %1
  %9 = load i32, i32* %2, align 4
  %10 = sub nsw i32 0, %9
  store i32 %10, i32* %2, align 4
  store i32 -1, i32* %5, align 4
  br label %11

11:                                               ; preds = %8, %1
  store i32 1, i32* %4, align 4
  br label %12

12:                                               ; preds = %24, %11
  %13 = load i32, i32* %3, align 4
  %14 = mul nsw i32 %13, 10
  %15 = load i32, i32* %2, align 4
  %16 = srem i32 %15, 10
  %17 = add nsw i32 %14, %16
  store i32 %17, i32* %3, align 4
  %18 = load i32, i32* %2, align 4
  %19 = icmp slt i32 %18, 10
  br i1 %19, label %20, label %21

20:                                               ; preds = %12
  br label %27

21:                                               ; preds = %12
  %22 = load i32, i32* %2, align 4
  %23 = sdiv i32 %22, 10
  store i32 %23, i32* %2, align 4
  br label %24

24:                                               ; preds = %21
  %25 = load i32, i32* %4, align 4
  %26 = add nsw i32 %25, 1
  store i32 %26, i32* %4, align 4
  br label %12

27:                                               ; preds = %20
  %28 = load i32, i32* %3, align 4
  %29 = load i32, i32* %5, align 4
  %30 = mul nsw i32 %28, %29
  store i32 %30, i32* %3, align 4
  %31 = load i32, i32* %3, align 4
  ret i32 %31
}


!llvm.module.flags = !{!0}
!llvm.ident = !{!1}

!0 = !{i32 1, !"wchar_size", i32 4}
!1 = !{!"clang version 10.0.0-4ubuntu1 "}
